target datalayout = "e-m:e-p270:32:32-p271:32:32-p272:64:64-i64:64-i128:128-f80:128-n8:16:32:64-S128"
target triple = "x86_64-pc-linux-gnu"

%struct.pdf_struct = type { ptr, i32, i32, i32, i32, i32, ptr, i64, ptr, i64, i64, i64, ptr, ptr, i32, i32, ptr, i32, ptr, i32, %struct.pdf_stats, ptr, i32, i32 }
%struct.pdf_stats = type { i32, i32, i32, i32, i32, i32, i32, i32, i32, i32, i32, i32, i32, i32, i32, i32, i32, i32, i32, i32, i32, i32, i32, i32, i32, ptr, ptr, ptr, ptr, ptr, ptr, ptr, ptr }
%struct.pdf_obj = type { i32, i64, i32, i32, i32, i32, [64 x i32], ptr, i64, ptr, ptr, i8 }
%struct.cli_ctx_tag = type { ptr, ptr, ptr, ptr, ptr, ptr, ptr, i64, ptr, i32, i32, ptr, i32, i32, ptr, [16 x i8], ptr, ptr, ptr, ptr, ptr, ptr, %struct.timeval, i8, i8 }
%struct.timeval = type { i64, i64 }
%struct.cl_engine = type { i32, i32, i32, [2 x i32], i32, i32, i32, ptr, i32, i64, i32, i32, i64, i64, i32, i32, i32, i32, ptr, ptr, ptr, ptr, ptr, ptr, ptr, ptr, ptr, ptr, ptr, ptr, ptr, ptr, ptr, ptr, ptr, ptr, ptr, i64, ptr, %struct.crtmgr, ptr, ptr, ptr, ptr, ptr, ptr, ptr, ptr, ptr, ptr, ptr, ptr, ptr, ptr, ptr, ptr, ptr, %struct.cli_all_bc, [7 x ptr], [7 x i32], i32, i32, i32, i32, i64, i64, i64, i64, i64, ptr, ptr, ptr, ptr, ptr, ptr, ptr, ptr, ptr, i32, i32, i32, i64, i64, i64, ptr }
%struct.crtmgr = type { ptr, i32 }
%struct.cli_all_bc = type { ptr, i32, ptr, %struct.cli_environment, i32 }
%struct.cli_environment = type { i32, i32, i32, i32, i32, i32, i32, [65 x i8], [65 x i8], [65 x i8], [65 x i8], [65 x i8], [65 x i8], [65 x i8], i8, i8, i8, i8, i8, i8, i8, i8, i8 }
%struct.text_norm_state = type { ptr, i64, i64, i32 }

@.str.215 = private unnamed_addr constant [26 x i8] c"%s/pdf obj %d %d contents\00", align 1
@.str.216 = private unnamed_addr constant [55 x i8] c"pdf_scan_contents: can't create temporary file %s: %s\0A\00", align 1

; Function Attrs: nounwind uwtable
define internal void @process(ptr noundef %0, ptr noundef %1, ptr noundef %2, i64 noundef %3, i32 noundef %4) #0 {
  %6 = alloca ptr, align 8
  %7 = alloca ptr, align 8
  %8 = alloca ptr, align 8
  %9 = alloca i64, align 8
  %10 = alloca i32, align 4
  %11 = alloca ptr, align 8
  store ptr %0, ptr %6, align 8
  store ptr %1, ptr %7, align 8
  store ptr %2, ptr %8, align 8
  store i64 %3, ptr %9, align 8
  store i32 %4, ptr %10, align 4
  br label %12

12:                                               ; preds = %90, %5
  %13 = load ptr, ptr %7, align 8
  %14 = load i32, ptr %13, align 4
  switch i32 %14, label %81 [
    i32 0, label %15
    i32 1, label %49
    i32 2, label %57
  ]

15:                                               ; preds = %12
  %16 = load ptr, ptr %8, align 8
  %17 = load i8, ptr %16, align 1
  %18 = sext i8 %17 to i32
  %19 = icmp eq i32 %18, 91
  br i1 %19, label %20, label %22

20:                                               ; preds = %15
  %21 = load ptr, ptr %7, align 8
  store i32 1, ptr %21, align 4
  br label %48

22:                                               ; preds = %15
  %23 = load ptr, ptr %8, align 8
  %24 = load i64, ptr %9, align 8
  %25 = call ptr @memchr(ptr noundef %23, i32 noundef 10, i64 noundef %24) #13
  store ptr %25, ptr %11, align 8
  %26 = load ptr, ptr %11, align 8
  %27 = icmp ne ptr %26, null
  br i1 %27, label %29, label %28

28:                                               ; preds = %22
  br label %93

29:                                               ; preds = %22
  %30 = load ptr, ptr %11, align 8
  %31 = load ptr, ptr %8, align 8
  %32 = ptrtoint ptr %30 to i64
  %33 = ptrtoint ptr %31 to i64
  %34 = sub i64 %32, %33
  %35 = load i64, ptr %9, align 8
  %36 = icmp ugt i64 %34, %35
  br i1 %36, label %37, label %38

37:                                               ; preds = %29
  store i64 0, ptr %9, align 8
  br label %46

38:                                               ; preds = %29
  %39 = load ptr, ptr %11, align 8
  %40 = load ptr, ptr %8, align 8
  %41 = ptrtoint ptr %39 to i64
  %42 = ptrtoint ptr %40 to i64
  %43 = sub i64 %41, %42
  %44 = load i64, ptr %9, align 8
  %45 = sub i64 %44, %43
  store i64 %45, ptr %9, align 8
  br label %46

46:                                               ; preds = %38, %37
  %47 = load ptr, ptr %11, align 8
  store ptr %47, ptr %8, align 8
  br label %48

48:                                               ; preds = %46, %20
  br label %81

49:                                               ; preds = %12
  %50 = load ptr, ptr %8, align 8
  %51 = load i8, ptr %50, align 1
  %52 = sext i8 %51 to i32
  %53 = icmp eq i32 %52, 40
  br i1 %53, label %54, label %56

54:                                               ; preds = %49
  %55 = load ptr, ptr %7, align 8
  store i32 2, ptr %55, align 4
  br label %56

56:                                               ; preds = %54, %49
  br label %81

57:                                               ; preds = %12
  %58 = load ptr, ptr %8, align 8
  %59 = load i8, ptr %58, align 1
  %60 = sext i8 %59 to i32
  %61 = icmp eq i32 %60, 41
  br i1 %61, label %62, label %64

62:                                               ; preds = %57
  %63 = load ptr, ptr %7, align 8
  store i32 1, ptr %63, align 4
  br label %80

64:                                               ; preds = %57
  %65 = load ptr, ptr %6, align 8
  %66 = load ptr, ptr %8, align 8
  %67 = call i64 @text_normalize_buffer(ptr noundef %65, ptr noundef %66, i64 noundef 1)
  %68 = icmp ne i64 %67, 1
  br i1 %68, label %69, label %79

69:                                               ; preds = %64
  %70 = load i32, ptr %10, align 4
  %71 = load ptr, ptr %6, align 8
  %72 = getelementptr inbounds %struct.text_norm_state, ptr %71, i32 0, i32 0
  %73 = load ptr, ptr %72, align 8
  %74 = load ptr, ptr %6, align 8
  %75 = getelementptr inbounds %struct.text_norm_state, ptr %74, i32 0, i32 2
  %76 = load i64, ptr %75, align 8
  %77 = call i64 @cli_writen(i32 noundef %70, ptr noundef %73, i64 noundef %76)
  %78 = load ptr, ptr %6, align 8
  call void @text_normalize_reset(ptr noundef %78)
  br label %79

79:                                               ; preds = %69, %64
  br label %80

80:                                               ; preds = %79, %62
  br label %81

81:                                               ; preds = %80, %56, %48, %12
  %82 = load ptr, ptr %8, align 8
  %83 = getelementptr inbounds i8, ptr %82, i32 1
  store ptr %83, ptr %8, align 8
  %84 = load i64, ptr %9, align 8
  %85 = icmp ugt i64 %84, 0
  br i1 %85, label %86, label %89

86:                                               ; preds = %81
  %87 = load i64, ptr %9, align 8
  %88 = add i64 %87, -1
  store i64 %88, ptr %9, align 8
  br label %89

89:                                               ; preds = %86, %81
  br label %90

90:                                               ; preds = %89
  %91 = load i64, ptr %9, align 8
  %92 = icmp ugt i64 %91, 0
  br i1 %92, label %12, label %93

93:                                               ; preds = %90, %28
  ret void
}

; Function Attrs: nounwind uwtable
define internal i32 @pdf_scan_contents(i32 noundef %0, ptr noundef %1, ptr noundef %2) #0 {
  %4 = alloca i32, align 4
  %5 = alloca i32, align 4
  %6 = alloca ptr, align 8
  %7 = alloca ptr, align 8
  %8 = alloca %struct.text_norm_state, align 8
  %9 = alloca [1024 x i8], align 16
  %10 = alloca [8192 x i8], align 16
  %11 = alloca [8192 x i8], align 16
  %12 = alloca i32, align 4
  %13 = alloca i64, align 8
  %14 = alloca i32, align 4
  %15 = alloca i32, align 4
  %16 = alloca [128 x i8], align 16
  store i32 %0, ptr %5, align 4
  store ptr %1, ptr %6, align 8
  store ptr %2, ptr %7, align 8
  store i32 0, ptr %15, align 4
  %17 = getelementptr inbounds [1024 x i8], ptr %9, i64 0, i64 0
  %18 = load ptr, ptr %6, align 8
  %19 = getelementptr inbounds %struct.pdf_struct, ptr %18, i32 0, i32 13
  %20 = load ptr, ptr %19, align 8
  %21 = load ptr, ptr %7, align 8
  %22 = getelementptr inbounds %struct.pdf_obj, ptr %21, i32 0, i32 2
  %23 = load i32, ptr %22, align 8
  %24 = lshr i32 %23, 8
  %25 = load ptr, ptr %7, align 8
  %26 = getelementptr inbounds %struct.pdf_obj, ptr %25, i32 0, i32 2
  %27 = load i32, ptr %26, align 8
  %28 = and i32 %27, 255
  %29 = call i32 (ptr, i64, ptr, ...) @snprintf(ptr noundef %17, i64 noundef 1024, ptr noundef @.str.215, ptr noundef %20, i32 noundef %24, i32 noundef %28) #11
  %30 = getelementptr inbounds [1024 x i8], ptr %9, i64 0, i64 0
  %31 = call i32 (ptr, i32, ...) @open(ptr noundef %30, i32 noundef 706, i32 noundef 384)
  store i32 %31, ptr %12, align 4
  %32 = load i32, ptr %12, align 4
  %33 = icmp slt i32 %32, 0
  br i1 %33, label %34, label %40

34:                                               ; preds = %3
  %35 = getelementptr inbounds [1024 x i8], ptr %9, i64 0, i64 0
  %36 = call ptr @__errno_location() #10
  %37 = load i32, ptr %36, align 4
  %38 = getelementptr inbounds [128 x i8], ptr %16, i64 0, i64 0
  %39 = call ptr @cli_strerror(i32 noundef %37, ptr noundef %38, i64 noundef 128)
  call void (ptr, ...) @cli_errmsg(ptr noundef @.str.216, ptr noundef %35, ptr noundef %39)
  store i32 17, ptr %4, align 4
  br label %97

40:                                               ; preds = %3
  %41 = getelementptr inbounds [8192 x i8], ptr %10, i64 0, i64 0
  %42 = call i32 @text_normalize_init(ptr noundef %8, ptr noundef %41, i64 noundef 8192)
  br label %43

43:                                               ; preds = %53, %40
  %44 = load i32, ptr %5, align 4
  %45 = getelementptr inbounds [8192 x i8], ptr %11, i64 0, i64 0
  %46 = call i64 @cli_readn(i32 noundef %44, ptr noundef %45, i64 noundef 8192)
  store i64 %46, ptr %13, align 8
  %47 = load i64, ptr %13, align 8
  %48 = icmp eq i64 %47, 0
  br i1 %48, label %52, label %49

49:                                               ; preds = %43
  %50 = load i64, ptr %13, align 8
  %51 = icmp eq i64 %50, -1
  br i1 %51, label %52, label %53

52:                                               ; preds = %49, %43
  br label %57

53:                                               ; preds = %49
  %54 = getelementptr inbounds [8192 x i8], ptr %11, i64 0, i64 0
  %55 = load i64, ptr %13, align 8
  %56 = load i32, ptr %12, align 4
  call void @process(ptr noundef %8, ptr noundef %15, ptr noundef %54, i64 noundef %55, i32 noundef %56)
  br label %43

57:                                               ; preds = %52
  %58 = load i32, ptr %12, align 4
  %59 = getelementptr inbounds %struct.text_norm_state, ptr %8, i32 0, i32 0
  %60 = load ptr, ptr %59, align 8
  %61 = getelementptr inbounds %struct.text_norm_state, ptr %8, i32 0, i32 2
  %62 = load i64, ptr %61, align 8
  %63 = call i64 @cli_writen(i32 noundef %58, ptr noundef %60, i64 noundef %62)
  %64 = load i32, ptr %12, align 4
  %65 = call i64 @lseek(i32 noundef %64, i64 noundef 0, i32 noundef 0) #11
  %66 = load i32, ptr %12, align 4
  %67 = getelementptr inbounds [1024 x i8], ptr %9, i64 0, i64 0
  %68 = load ptr, ptr %6, align 8
  %69 = getelementptr inbounds %struct.pdf_struct, ptr %68, i32 0, i32 12
  %70 = load ptr, ptr %69, align 8
  %71 = call i32 @cli_magic_scan_desc(i32 noundef %66, ptr noundef %67, ptr noundef %70, ptr noundef null, i32 noundef 0)
  store i32 %71, ptr %14, align 4
  %72 = load i32, ptr %12, align 4
  %73 = call i32 @close(i32 noundef %72)
  %74 = load ptr, ptr %6, align 8
  %75 = getelementptr inbounds %struct.pdf_struct, ptr %74, i32 0, i32 12
  %76 = load ptr, ptr %75, align 8
  %77 = getelementptr inbounds %struct.cli_ctx_tag, ptr %76, i32 0, i32 6
  %78 = load ptr, ptr %77, align 8
  %79 = getelementptr inbounds %struct.cl_engine, ptr %78, i32 0, i32 8
  %80 = load i32, ptr %79, align 8
  %81 = icmp ne i32 %80, 0
  br i1 %81, label %82, label %86

82:                                               ; preds = %57
  %83 = getelementptr inbounds %struct.text_norm_state, ptr %8, i32 0, i32 2
  %84 = load i64, ptr %83, align 8
  %85 = icmp eq i64 %84, 0
  br i1 %85, label %86, label %95

86:                                               ; preds = %82, %57
  %87 = getelementptr inbounds [1024 x i8], ptr %9, i64 0, i64 0
  %88 = call i32 @cli_unlink(ptr noundef %87)
  %89 = icmp ne i32 %88, 0
  br i1 %89, label %90, label %94

90:                                               ; preds = %86
  %91 = load i32, ptr %14, align 4
  %92 = icmp ne i32 %91, 1
  br i1 %92, label %93, label %94

93:                                               ; preds = %90
  store i32 10, ptr %14, align 4
  br label %94

94:                                               ; preds = %93, %90, %86
  br label %95

95:                                               ; preds = %94, %82
  %96 = load i32, ptr %14, align 4
  store i32 %96, ptr %4, align 4
  br label %97

97:                                               ; preds = %95, %34
  %98 = load i32, ptr %4, align 4
  ret i32 %98
}