; Function Attrs: nounwind uwtable
define internal fastcc i32 @pdf_scan_contents(i32 noundef %0, ptr nocapture noundef readonly %1, i32 %.16.val) unnamed_addr #0 {
  %3 = alloca %struct.text_norm_state, align 8
  %4 = alloca [1024 x i8], align 16
  %5 = alloca [8192 x i8], align 16
  %6 = alloca [8192 x i8], align 16
  %7 = alloca [128 x i8], align 16
  %8 = getelementptr inbounds i8, ptr %1, i64 88
  %9 = load ptr, ptr %8, align 8
  %10 = lshr i32 %.16.val, 8
  %11 = and i32 %.16.val, 255
  %12 = call i32 (ptr, i64, ptr, ...) @snprintf(ptr noundef nonnull dereferenceable(1) %4, i64 noundef 1024, ptr noundef nonnull @.str.215, ptr noundef %9, i32 noundef %10, i32 noundef %11) #22
  %13 = call i32 (ptr, i32, ...) @open(ptr noundef nonnull %4, i32 noundef 706, i32 noundef 384) #22
  %14 = icmp slt i32 %13, 0
  br i1 %14, label %15, label %19

15:                                               ; preds = %2
  %16 = tail call ptr @__errno_location() #24
  %17 = load i32, ptr %16, align 4
  %18 = call ptr @cli_strerror(i32 noundef %17, ptr noundef nonnull %7, i64 noundef 128) #22
  call void (ptr, ...) @cli_errmsg(ptr noundef nonnull @.str.216, ptr noundef nonnull %4, ptr noundef %18) #22
  br label %72

19:                                               ; preds = %2
  %20 = call i32 @text_normalize_init(ptr noundef nonnull %3, ptr noundef nonnull %5, i64 noundef 8192) #22
  %21 = call i64 @cli_readn(i32 noundef %0, ptr noundef nonnull %6, i64 noundef 8192) #22
  %22 = add i64 %21, 1
  %or.cond1 = icmp ult i64 %22, 2
  br i1 %or.cond1, label %._crit_edge, label %.lr.ph

.lr.ph:                                           ; preds = %19
  %23 = getelementptr inbounds i8, ptr %3, i64 16
  br label %24

24:                                               ; preds = %.backedge, %.lr.ph
  %.1 = phi i32 [ 0, %.lr.ph ], [ %.1.be, %.backedge ]
  %.026.i = phi i64 [ %21, %.lr.ph ], [ %.026.i.be, %.backedge ]
  %.0.i = phi ptr [ %6, %.lr.ph ], [ %.0.i.be, %.backedge ]
  switch i32 %.1, label %46 [
    i32 0, label %25
    i32 1, label %34
    i32 2, label %37
  ]

25:                                               ; preds = %24
  %26 = load i8, ptr %.0.i, align 1
  %27 = icmp eq i8 %26, 91
  br i1 %27, label %46, label %28

28:                                               ; preds = %25
  %29 = call ptr @memchr(ptr noundef nonnull %.0.i, i32 noundef 10, i64 noundef %.026.i) #26
  %.not30.i = icmp eq ptr %29, null
  br i1 %.not30.i, label %process.exit, label %30

30:                                               ; preds = %28
  %31 = ptrtoint ptr %29 to i64
  %32 = ptrtoint ptr %.0.i to i64
  %33 = sub i64 %31, %32
  %.127.i = call i64 @llvm.usub.sat.i64(i64 %.026.i, i64 %33)
  br label %46

34:                                               ; preds = %24
  %35 = load i8, ptr %.0.i, align 1
  %36 = icmp eq i8 %35, 40
  %spec.select = select i1 %36, i32 2, i32 1
  br label %46

37:                                               ; preds = %24
  %38 = load i8, ptr %.0.i, align 1
  %39 = icmp eq i8 %38, 41
  br i1 %39, label %46, label %40

40:                                               ; preds = %37
  %41 = call i64 @text_normalize_buffer(ptr noundef nonnull %3, ptr noundef nonnull %.0.i, i64 noundef 1) #22
  %.not.i = icmp eq i64 %41, 1
  br i1 %.not.i, label %46, label %42

42:                                               ; preds = %40
  %43 = load ptr, ptr %3, align 8
  %44 = load i64, ptr %23, align 8
  %45 = call i64 @cli_writen(i32 noundef %13, ptr noundef %43, i64 noundef %44) #22
  call void @text_normalize_reset(ptr noundef nonnull %3) #22
  br label %46

46:                                               ; preds = %34, %37, %25, %42, %40, %30, %24
  %.2 = phi i32 [ %.1, %24 ], [ 2, %40 ], [ 2, %42 ], [ 0, %30 ], [ 1, %25 ], [ 1, %37 ], [ %spec.select, %34 ]
  %.2.i = phi i64 [ %.026.i, %24 ], [ %.026.i, %40 ], [ %.026.i, %42 ], [ %.127.i, %30 ], [ %.026.i, %25 ], [ %.026.i, %37 ], [ %.026.i, %34 ]
  %.1.i = phi ptr [ %.0.i, %24 ], [ %.0.i, %40 ], [ %.0.i, %42 ], [ %29, %30 ], [ %.0.i, %25 ], [ %.0.i, %37 ], [ %.0.i, %34 ]
  %47 = getelementptr inbounds i8, ptr %.1.i, i64 1
  %48 = add i64 %.2.i, -1
  %.not32.i = icmp ult i64 %.2.i, 2
  br i1 %.not32.i, label %process.exit, label %.backedge

.backedge:                                        ; preds = %46, %process.exit
  %.1.be = phi i32 [ %.2, %46 ], [ %.3, %process.exit ]
  %.026.i.be = phi i64 [ %48, %46 ], [ %49, %process.exit ]
  %.0.i.be = phi ptr [ %47, %46 ], [ %6, %process.exit ]
  br label %24

process.exit:                                     ; preds = %28, %46
  %.3 = phi i32 [ %.2, %46 ], [ 0, %28 ]
  %49 = call i64 @cli_readn(i32 noundef %0, ptr noundef nonnull %6, i64 noundef 8192) #22
  %50 = add i64 %49, 1
  %or.cond = icmp ult i64 %50, 2
  br i1 %or.cond, label %._crit_edge, label %.backedge

._crit_edge:                                      ; preds = %process.exit, %19
  %51 = load ptr, ptr %3, align 8
  %52 = getelementptr inbounds i8, ptr %3, i64 16
  %53 = load i64, ptr %52, align 8
  %54 = call i64 @cli_writen(i32 noundef %13, ptr noundef %51, i64 noundef %53) #22
  %55 = call i64 @lseek(i32 noundef %13, i64 noundef 0, i32 noundef 0) #22
  %56 = getelementptr inbounds i8, ptr %1, i64 80
  %57 = load ptr, ptr %56, align 8
  %58 = call i32 @cli_magic_scan_desc(i32 noundef %13, ptr noundef nonnull %4, ptr noundef %57, ptr noundef null, i32 noundef 0) #22
  %59 = call i32 @close(i32 noundef %13) #22
  %60 = load ptr, ptr %56, align 8
  %61 = getelementptr inbounds i8, ptr %60, i64 48
  %62 = load ptr, ptr %61, align 8
  %63 = getelementptr inbounds i8, ptr %62, i64 40
  %64 = load i32, ptr %63, align 8
  %65 = icmp eq i32 %64, 0
  %66 = load i64, ptr %52, align 8
  %67 = icmp eq i64 %66, 0
  %or.cond4 = select i1 %65, i1 true, i1 %67
  br i1 %or.cond4, label %68, label %72

68:                                               ; preds = %._crit_edge
  %69 = call i32 @cli_unlink(ptr noundef nonnull %4) #22
  %70 = icmp ne i32 %69, 0
  %71 = icmp ne i32 %58, 1
  %or.cond6 = select i1 %70, i1 %71, i1 false
  %spec.store.select = select i1 %or.cond6, i32 10, i32 %58
  br label %72

72:                                               ; preds = %._crit_edge, %68, %15
  %.023 = phi i32 [ 17, %15 ], [ %spec.store.select, %68 ], [ %58, %._crit_edge ]
  ret i32 %.023
}